; ModuleID = '39/519.c'
source_filename = "39/519.c"
target datalayout = "e-m:e-p270:32:32-p271:32:32-p272:64:64-i64:64-f80:128-n8:16:32:64-S128"
target triple = "x86_64-pc-linux-gnu"

@.str = private unnamed_addr constant [3 x i8] c"%d\00", align 1
@.str.1 = private unnamed_addr constant [18 x i8] c"%s %d %d %c %c %d\00", align 1
@.str.2 = private unnamed_addr constant [4 x i8] c"%s\0A\00", align 1
@.str.3 = private unnamed_addr constant [4 x i8] c"%d\0A\00", align 1

; Function Attrs: noinline nounwind uwtable
define dso_local void @main() #0 {
  %1 = alloca i32, align 4
  %2 = alloca i32, align 4
  %3 = alloca i32, align 4
  %4 = alloca [101 x [50 x i8]], align 16
  %5 = alloca [101 x i8], align 16
  %6 = alloca [101 x i8], align 16
  %7 = alloca [101 x i32], align 16
  %8 = alloca [101 x i32], align 16
  %9 = alloca [101 x i32], align 16
  %10 = alloca [150 x i32], align 16
  %11 = call i32 (i8*, ...) @__isoc99_scanf(i8* getelementptr inbounds ([3 x i8], [3 x i8]* @.str, i64 0, i64 0), i32* %1)
  store i32 0, i32* %2, align 4
  br label %12

12:                                               ; preds = %141, %0
  %13 = load i32, i32* %2, align 4
  %14 = load i32, i32* %1, align 4
  %15 = icmp slt i32 %13, %14
  br i1 %15, label %16, label %144

16:                                               ; preds = %12
  %17 = load i32, i32* %2, align 4
  %18 = sext i32 %17 to i64
  %19 = getelementptr inbounds [150 x i32], [150 x i32]* %10, i64 0, i64 %18
  store i32 0, i32* %19, align 4
  %20 = load i32, i32* %2, align 4
  %21 = sext i32 %20 to i64
  %22 = getelementptr inbounds [101 x [50 x i8]], [101 x [50 x i8]]* %4, i64 0, i64 %21
  %23 = getelementptr inbounds [50 x i8], [50 x i8]* %22, i64 0, i64 0
  %24 = load i32, i32* %2, align 4
  %25 = sext i32 %24 to i64
  %26 = getelementptr inbounds [101 x i32], [101 x i32]* %7, i64 0, i64 %25
  %27 = load i32, i32* %2, align 4
  %28 = sext i32 %27 to i64
  %29 = getelementptr inbounds [101 x i32], [101 x i32]* %8, i64 0, i64 %28
  %30 = load i32, i32* %2, align 4
  %31 = sext i32 %30 to i64
  %32 = getelementptr inbounds [101 x i8], [101 x i8]* %5, i64 0, i64 %31
  %33 = load i32, i32* %2, align 4
  %34 = sext i32 %33 to i64
  %35 = getelementptr inbounds [101 x i8], [101 x i8]* %6, i64 0, i64 %34
  %36 = load i32, i32* %2, align 4
  %37 = sext i32 %36 to i64
  %38 = getelementptr inbounds [101 x i32], [101 x i32]* %9, i64 0, i64 %37
  %39 = call i32 (i8*, ...) @__isoc99_scanf(i8* getelementptr inbounds ([18 x i8], [18 x i8]* @.str.1, i64 0, i64 0), i8* %23, i32* %26, i32* %29, i8* %32, i8* %35, i32* %38)
  %40 = load i32, i32* %2, align 4
  %41 = sext i32 %40 to i64
  %42 = getelementptr inbounds [101 x i32], [101 x i32]* %7, i64 0, i64 %41
  %43 = load i32, i32* %42, align 4
  %44 = icmp sgt i32 %43, 80
  br i1 %44, label %45, label %60

45:                                               ; preds = %16
  %46 = load i32, i32* %2, align 4
  %47 = sext i32 %46 to i64
  %48 = getelementptr inbounds [101 x i32], [101 x i32]* %9, i64 0, i64 %47
  %49 = load i32, i32* %48, align 4
  %50 = icmp sge i32 %49, 1
  br i1 %50, label %51, label %60

51:                                               ; preds = %45
  %52 = load i32, i32* %2, align 4
  %53 = sext i32 %52 to i64
  %54 = getelementptr inbounds [150 x i32], [150 x i32]* %10, i64 0, i64 %53
  %55 = load i32, i32* %54, align 4
  %56 = add nsw i32 %55, 8000
  %57 = load i32, i32* %2, align 4
  %58 = sext i32 %57 to i64
  %59 = getelementptr inbounds [150 x i32], [150 x i32]* %10, i64 0, i64 %58
  store i32 %56, i32* %59, align 4
  br label %60

60:                                               ; preds = %51, %45, %16
  %61 = load i32, i32* %2, align 4
  %62 = sext i32 %61 to i64
  %63 = getelementptr inbounds [101 x i32], [101 x i32]* %7, i64 0, i64 %62
  %64 = load i32, i32* %63, align 4
  %65 = icmp sgt i32 %64, 85
  br i1 %65, label %66, label %81

66:                                               ; preds = %60
  %67 = load i32, i32* %2, align 4
  %68 = sext i32 %67 to i64
  %69 = getelementptr inbounds [101 x i32], [101 x i32]* %8, i64 0, i64 %68
  %70 = load i32, i32* %69, align 4
  %71 = icmp sgt i32 %70, 80
  br i1 %71, label %72, label %81

72:                                               ; preds = %66
  %73 = load i32, i32* %2, align 4
  %74 = sext i32 %73 to i64
  %75 = getelementptr inbounds [150 x i32], [150 x i32]* %10, i64 0, i64 %74
  %76 = load i32, i32* %75, align 4
  %77 = add nsw i32 %76, 4000
  %78 = load i32, i32* %2, align 4
  %79 = sext i32 %78 to i64
  %80 = getelementptr inbounds [150 x i32], [150 x i32]* %10, i64 0, i64 %79
  store i32 %77, i32* %80, align 4
  br label %81

81:                                               ; preds = %72, %66, %60
  %82 = load i32, i32* %2, align 4
  %83 = sext i32 %82 to i64
  %84 = getelementptr inbounds [101 x i32], [101 x i32]* %7, i64 0, i64 %83
  %85 = load i32, i32* %84, align 4
  %86 = icmp sgt i32 %85, 90
  br i1 %86, label %87, label %96

87:                                               ; preds = %81
  %88 = load i32, i32* %2, align 4
  %89 = sext i32 %88 to i64
  %90 = getelementptr inbounds [150 x i32], [150 x i32]* %10, i64 0, i64 %89
  %91 = load i32, i32* %90, align 4
  %92 = add nsw i32 %91, 2000
  %93 = load i32, i32* %2, align 4
  %94 = sext i32 %93 to i64
  %95 = getelementptr inbounds [150 x i32], [150 x i32]* %10, i64 0, i64 %94
  store i32 %92, i32* %95, align 4
  br label %96

96:                                               ; preds = %87, %81
  %97 = load i32, i32* %2, align 4
  %98 = sext i32 %97 to i64
  %99 = getelementptr inbounds [101 x i32], [101 x i32]* %7, i64 0, i64 %98
  %100 = load i32, i32* %99, align 4
  %101 = icmp sgt i32 %100, 85
  br i1 %101, label %102, label %118

102:                                              ; preds = %96
  %103 = load i32, i32* %2, align 4
  %104 = sext i32 %103 to i64
  %105 = getelementptr inbounds [101 x i8], [101 x i8]* %6, i64 0, i64 %104
  %106 = load i8, i8* %105, align 1
  %107 = sext i8 %106 to i32
  %108 = icmp eq i32 %107, 89
  br i1 %108, label %109, label %118

109:                                              ; preds = %102
  %110 = load i32, i32* %2, align 4
  %111 = sext i32 %110 to i64
  %112 = getelementptr inbounds [150 x i32], [150 x i32]* %10, i64 0, i64 %111
  %113 = load i32, i32* %112, align 4
  %114 = add nsw i32 %113, 1000
  %115 = load i32, i32* %2, align 4
  %116 = sext i32 %115 to i64
  %117 = getelementptr inbounds [150 x i32], [150 x i32]* %10, i64 0, i64 %116
  store i32 %114, i32* %117, align 4
  br label %118

118:                                              ; preds = %109, %102, %96
  %119 = load i32, i32* %2, align 4
  %120 = sext i32 %119 to i64
  %121 = getelementptr inbounds [101 x i32], [101 x i32]* %8, i64 0, i64 %120
  %122 = load i32, i32* %121, align 4
  %123 = icmp sgt i32 %122, 80
  br i1 %123, label %124, label %140

124:                                              ; preds = %118
  %125 = load i32, i32* %2, align 4
  %126 = sext i32 %125 to i64
  %127 = getelementptr inbounds [101 x i8], [101 x i8]* %5, i64 0, i64 %126
  %128 = load i8, i8* %127, align 1
  %129 = sext i8 %128 to i32
  %130 = icmp eq i32 %129, 89
  br i1 %130, label %131, label %140

131:                                              ; preds = %124
  %132 = load i32, i32* %2, align 4
  %133 = sext i32 %132 to i64
  %134 = getelementptr inbounds [150 x i32], [150 x i32]* %10, i64 0, i64 %133
  %135 = load i32, i32* %134, align 4
  %136 = add nsw i32 %135, 850
  %137 = load i32, i32* %2, align 4
  %138 = sext i32 %137 to i64
  %139 = getelementptr inbounds [150 x i32], [150 x i32]* %10, i64 0, i64 %138
  store i32 %136, i32* %139, align 4
  br label %140

140:                                              ; preds = %131, %124, %118
  br label %141

141:                                              ; preds = %140
  %142 = load i32, i32* %2, align 4
  %143 = add nsw i32 %142, 1
  store i32 %143, i32* %2, align 4
  br label %12

144:                                              ; preds = %12
  %145 = getelementptr inbounds [150 x i32], [150 x i32]* %10, i64 0, i64 101
  store i32 0, i32* %145, align 4
  %146 = getelementptr inbounds [150 x i32], [150 x i32]* %10, i64 0, i64 102
  store i32 0, i32* %146, align 8
  store i32 0, i32* %2, align 4
  br label %147

147:                                              ; preds = %175, %144
  %148 = load i32, i32* %2, align 4
  %149 = load i32, i32* %1, align 4
  %150 = icmp slt i32 %148, %149
  br i1 %150, label %151, label %178

151:                                              ; preds = %147
  %152 = getelementptr inbounds [150 x i32], [150 x i32]* %10, i64 0, i64 102
  %153 = load i32, i32* %152, align 8
  %154 = load i32, i32* %2, align 4
  %155 = sext i32 %154 to i64
  %156 = getelementptr inbounds [150 x i32], [150 x i32]* %10, i64 0, i64 %155
  %157 = load i32, i32* %156, align 4
  %158 = add nsw i32 %153, %157
  %159 = getelementptr inbounds [150 x i32], [150 x i32]* %10, i64 0, i64 102
  store i32 %158, i32* %159, align 8
  %160 = load i32, i32* %2, align 4
  %161 = sext i32 %160 to i64
  %162 = getelementptr inbounds [150 x i32], [150 x i32]* %10, i64 0, i64 %161
  %163 = load i32, i32* %162, align 4
  %164 = getelementptr inbounds [150 x i32], [150 x i32]* %10, i64 0, i64 101
  %165 = load i32, i32* %164, align 4
  %166 = icmp sgt i32 %163, %165
  br i1 %166, label %167, label %174

167:                                              ; preds = %151
  %168 = load i32, i32* %2, align 4
  %169 = sext i32 %168 to i64
  %170 = getelementptr inbounds [150 x i32], [150 x i32]* %10, i64 0, i64 %169
  %171 = load i32, i32* %170, align 4
  %172 = getelementptr inbounds [150 x i32], [150 x i32]* %10, i64 0, i64 101
  store i32 %171, i32* %172, align 4
  %173 = load i32, i32* %2, align 4
  store i32 %173, i32* %3, align 4
  br label %174

174:                                              ; preds = %167, %151
  br label %175

175:                                              ; preds = %174
  %176 = load i32, i32* %2, align 4
  %177 = add nsw i32 %176, 1
  store i32 %177, i32* %2, align 4
  br label %147

178:                                              ; preds = %147
  %179 = load i32, i32* %3, align 4
  %180 = sext i32 %179 to i64
  %181 = getelementptr inbounds [101 x [50 x i8]], [101 x [50 x i8]]* %4, i64 0, i64 %180
  %182 = getelementptr inbounds [50 x i8], [50 x i8]* %181, i64 0, i64 0
  %183 = call i32 (i8*, ...) @printf(i8* getelementptr inbounds ([4 x i8], [4 x i8]* @.str.2, i64 0, i64 0), i8* %182)
  %184 = getelementptr inbounds [150 x i32], [150 x i32]* %10, i64 0, i64 101
  %185 = load i32, i32* %184, align 4
  %186 = call i32 (i8*, ...) @printf(i8* getelementptr inbounds ([4 x i8], [4 x i8]* @.str.3, i64 0, i64 0), i32 %185)
  %187 = getelementptr inbounds [150 x i32], [150 x i32]* %10, i64 0, i64 102
  %188 = load i32, i32* %187, align 8
  %189 = call i32 (i8*, ...) @printf(i8* getelementptr inbounds ([4 x i8], [4 x i8]* @.str.3, i64 0, i64 0), i32 %188)
  ret void
}

declare dso_local i32 @__isoc99_scanf(i8*, ...) #1

declare dso_local i32 @printf(i8*, ...) #1


!llvm.module.flags = !{!0}
!llvm.ident = !{!1}

!0 = !{i32 1, !"wchar_size", i32 4}
!1 = !{!"clang version 10.0.0-4ubuntu1 "}
